; Function Attrs: nounwind uwtable
define ptr @l___private_Lean_Meta_Tactic_Grind_EMatchTheorem_0__Lean_Meta_Grind_EMatchTheoremKind_explainFailure___boxed(ptr noundef %0) local_unnamed_addr #1 {
  %2 = ptrtoint ptr %0 to i64
  %3 = lshr i64 %2, 1
  %4 = trunc i64 %3 to i8
  %5 = and i64 %2, 1
  %.not = icmp eq i64 %5, 0
  br i1 %.not, label %6, label %lean_dec.exit

6:                                                ; preds = %1
  %7 = load i32, ptr %0, align 4, !tbaa !4
  %8 = icmp sgt i32 %7, 1
  br i1 %8, label %9, label %11, !prof !11

9:                                                ; preds = %6
  %10 = add nsw i32 %7, -1
  store i32 %10, ptr %0, align 4, !tbaa !4
  br label %lean_dec.exit

11:                                               ; preds = %6
  %.not.i = icmp eq i32 %7, 0
  br i1 %.not.i, label %lean_dec.exit, label %12

12:                                               ; preds = %11
  tail call void @lean_dec_ref_cold(ptr noundef nonnull %0) #9
  br label %lean_dec.exit

lean_dec.exit:                                    ; preds = %12, %11, %9, %1
  switch i8 %4, label %32 [
    i8 0, label %13
    i8 1, label %15
    i8 2, label %17
    i8 3, label %20
    i8 4, label %22
    i8 5, label %24
    i8 6, label %26
    i8 7, label %28
    i8 8, label %30
  ]

13:                                               ; preds = %lean_dec.exit
  %14 = load ptr, ptr @l___private_Lean_Meta_Tactic_Grind_EMatchTheorem_0__Lean_Meta_Grind_EMatchTheoremKind_explainFailure___closed__1, align 8, !tbaa !9
  br label %l___private_Lean_Meta_Tactic_Grind_EMatchTheorem_0__Lean_Meta_Grind_EMatchTheoremKind_explainFailure.exit

15:                                               ; preds = %lean_dec.exit
  %16 = load ptr, ptr @l___private_Lean_Meta_Tactic_Grind_EMatchTheorem_0__Lean_Meta_Grind_EMatchTheoremKind_explainFailure___closed__2, align 8, !tbaa !9
  br label %l___private_Lean_Meta_Tactic_Grind_EMatchTheorem_0__Lean_Meta_Grind_EMatchTheoremKind_explainFailure.exit

17:                                               ; preds = %lean_dec.exit
  %18 = load ptr, ptr @l___private_Lean_Meta_Tactic_Grind_EMatchTheorem_0__Lean_Meta_Grind_EMatchTheoremKind_explainFailure___closed__6, align 8, !tbaa !9
  %19 = tail call ptr @l_panic___at_String_fromUTF8_x21___spec__1(ptr noundef %18) #9
  br label %l___private_Lean_Meta_Tactic_Grind_EMatchTheorem_0__Lean_Meta_Grind_EMatchTheoremKind_explainFailure.exit

20:                                               ; preds = %lean_dec.exit
  %21 = load ptr, ptr @l___private_Lean_Meta_Tactic_Grind_EMatchTheorem_0__Lean_Meta_Grind_EMatchTheoremKind_explainFailure___closed__7, align 8, !tbaa !9
  br label %l___private_Lean_Meta_Tactic_Grind_EMatchTheorem_0__Lean_Meta_Grind_EMatchTheoremKind_explainFailure.exit

22:                                               ; preds = %lean_dec.exit
  %23 = load ptr, ptr @l___private_Lean_Meta_Tactic_Grind_EMatchTheorem_0__Lean_Meta_Grind_EMatchTheoremKind_explainFailure___closed__8, align 8, !tbaa !9
  br label %l___private_Lean_Meta_Tactic_Grind_EMatchTheorem_0__Lean_Meta_Grind_EMatchTheoremKind_explainFailure.exit

24:                                               ; preds = %lean_dec.exit
  %25 = load ptr, ptr @l___private_Lean_Meta_Tactic_Grind_EMatchTheorem_0__Lean_Meta_Grind_EMatchTheoremKind_explainFailure___closed__9, align 8, !tbaa !9
  br label %l___private_Lean_Meta_Tactic_Grind_EMatchTheorem_0__Lean_Meta_Grind_EMatchTheoremKind_explainFailure.exit

26:                                               ; preds = %lean_dec.exit
  %27 = load ptr, ptr @l___private_Lean_Meta_Tactic_Grind_EMatchTheorem_0__Lean_Meta_Grind_EMatchTheoremKind_explainFailure___closed__10, align 8, !tbaa !9
  br label %l___private_Lean_Meta_Tactic_Grind_EMatchTheorem_0__Lean_Meta_Grind_EMatchTheoremKind_explainFailure.exit

28:                                               ; preds = %lean_dec.exit
  %29 = load ptr, ptr @l___private_Lean_Meta_Tactic_Grind_EMatchTheorem_0__Lean_Meta_Grind_EMatchTheoremKind_explainFailure___closed__11, align 8, !tbaa !9
  br label %l___private_Lean_Meta_Tactic_Grind_EMatchTheorem_0__Lean_Meta_Grind_EMatchTheoremKind_explainFailure.exit

30:                                               ; preds = %lean_dec.exit
  %31 = load ptr, ptr @l___private_Lean_Meta_Tactic_Grind_EMatchTheorem_0__Lean_Meta_Grind_EMatchTheoremKind_explainFailure___closed__12, align 8, !tbaa !9
  br label %l___private_Lean_Meta_Tactic_Grind_EMatchTheorem_0__Lean_Meta_Grind_EMatchTheoremKind_explainFailure.exit

32:                                               ; preds = %lean_dec.exit
  %33 = load ptr, ptr @l___private_Lean_Meta_Tactic_Grind_EMatchTheorem_0__Lean_Meta_Grind_EMatchTheoremKind_explainFailure___closed__13, align 8, !tbaa !9
  %34 = tail call ptr @l_panic___at_String_fromUTF8_x21___spec__1(ptr noundef %33) #9
  br label %l___private_Lean_Meta_Tactic_Grind_EMatchTheorem_0__Lean_Meta_Grind_EMatchTheoremKind_explainFailure.exit

l___private_Lean_Meta_Tactic_Grind_EMatchTheorem_0__Lean_Meta_Grind_EMatchTheoremKind_explainFailure.exit: ; preds = %13, %15, %17, %20, %22, %24, %26, %28, %30, %32
  %.0.i = phi ptr [ %34, %32 ], [ %31, %30 ], [ %29, %28 ], [ %27, %26 ], [ %25, %24 ], [ %23, %22 ], [ %21, %20 ], [ %19, %17 ], [ %16, %15 ], [ %14, %13 ]
  ret ptr %.0.i
}